target datalayout = "e-m:e-p270:32:32-p271:32:32-p272:64:64-i64:64-i128:128-f80:128-n8:16:32:64-S128"
target triple = "x86_64-pc-linux-gnu"

@hf_ipcp_opt_rohc_type = internal global i32 0, align 4
@hf_ipcp_opt_rohc_length = internal global i32 0, align 4
@hf_ipcp_opt_rohc_profile = internal global i32 0, align 4
@ett_ipcp_rohc_profiles_opt = internal global i32 0, align 4
@proto_ipcp_rohc_option_profiles = internal global i32 0, align 4
@.str.1295 = private unnamed_addr constant [8 x i8] c"%s (%u)\00", align 1

; Function Attrs: null_pointer_is_valid sspstrong uwtable
define internal void @dissect_ipcp_opt_rohc_type_len(ptr noundef %0, i32 noundef %1, ptr noundef %2, ptr noundef %3) #1 {
  %5 = alloca ptr, align 8
  %6 = alloca i32, align 4
  %7 = alloca ptr, align 8
  %8 = alloca ptr, align 8
  %9 = alloca i8, align 1
  store ptr %0, ptr %5, align 8
  store i32 %1, ptr %6, align 4
  store ptr %2, ptr %7, align 8
  store ptr %3, ptr %8, align 8
  call void @llvm.lifetime.start.p0(i64 1, ptr %9) #6
  %10 = load ptr, ptr %5, align 8
  %11 = load i32, ptr %6, align 4
  %12 = call zeroext i8 @tvb_get_uint8(ptr noundef %10, i32 noundef %11)
  store i8 %12, ptr %9, align 1
  %13 = load ptr, ptr %7, align 8
  %14 = load i32, ptr @hf_ipcp_opt_rohc_type, align 4
  %15 = load ptr, ptr %5, align 8
  %16 = load i32, ptr %6, align 4
  %17 = load i8, ptr %9, align 1
  %18 = zext i8 %17 to i32
  %19 = load ptr, ptr %8, align 8
  %20 = load i8, ptr %9, align 1
  %21 = zext i8 %20 to i32
  %22 = call ptr (ptr, i32, ptr, i32, i32, i32, ptr, ...) @proto_tree_add_uint_format_value(ptr noundef %13, i32 noundef %14, ptr noundef %15, i32 noundef %16, i32 noundef 1, i32 noundef %18, ptr noundef @.str.1295, ptr noundef %19, i32 noundef %21)
  %23 = load ptr, ptr %7, align 8
  %24 = load i32, ptr @hf_ipcp_opt_rohc_length, align 4
  %25 = load ptr, ptr %5, align 8
  %26 = load i32, ptr %6, align 4
  %27 = add i32 %26, 1
  %28 = call ptr @proto_tree_add_item(ptr noundef %23, i32 noundef %24, ptr noundef %25, i32 noundef %27, i32 noundef 1, i32 noundef 0)
  call void @llvm.lifetime.end.p0(i64 1, ptr %9) #6
  ret void
}

; Function Attrs: null_pointer_is_valid sspstrong uwtable
define internal i32 @dissect_ipcp_rohc_profiles_opt(ptr noundef %0, ptr noundef %1, ptr noundef %2, ptr noundef %3) #1 {
  %5 = alloca i32, align 4
  %6 = alloca ptr, align 8
  %7 = alloca ptr, align 8
  %8 = alloca ptr, align 8
  %9 = alloca ptr, align 8
  %10 = alloca ptr, align 8
  %11 = alloca ptr, align 8
  %12 = alloca i32, align 4
  %13 = alloca i32, align 4
  %14 = alloca i32, align 4
  store ptr %0, ptr %6, align 8
  store ptr %1, ptr %7, align 8
  store ptr %2, ptr %8, align 8
  store ptr %3, ptr %9, align 8
  call void @llvm.lifetime.start.p0(i64 8, ptr %10) #6
  call void @llvm.lifetime.start.p0(i64 8, ptr %11) #6
  call void @llvm.lifetime.start.p0(i64 4, ptr %12) #6
  %15 = load ptr, ptr %6, align 8
  %16 = call i32 @tvb_reported_length(ptr noundef %15)
  store i32 %16, ptr %12, align 4
  call void @llvm.lifetime.start.p0(i64 4, ptr %13) #6
  store i32 0, ptr %13, align 4
  %17 = load ptr, ptr %8, align 8
  %18 = load i32, ptr @proto_ipcp_rohc_option_profiles, align 4
  %19 = load ptr, ptr %6, align 8
  %20 = load i32, ptr %13, align 4
  %21 = load i32, ptr %12, align 4
  %22 = call ptr @proto_tree_add_item(ptr noundef %17, i32 noundef %18, ptr noundef %19, i32 noundef %20, i32 noundef %21, i32 noundef 0)
  store ptr %22, ptr %11, align 8
  %23 = load ptr, ptr %11, align 8
  %24 = load i32, ptr @ett_ipcp_rohc_profiles_opt, align 4
  %25 = call ptr @proto_item_add_subtree(ptr noundef %23, i32 noundef %24)
  store ptr %25, ptr %10, align 8
  %26 = load ptr, ptr %6, align 8
  %27 = load i32, ptr %13, align 4
  %28 = load ptr, ptr %10, align 8
  %29 = load i32, ptr @proto_ipcp_rohc_option_profiles, align 4
  %30 = call ptr @proto_registrar_get_name(i32 noundef %29)
  call void @dissect_ipcp_opt_rohc_type_len(ptr noundef %26, i32 noundef %27, ptr noundef %28, ptr noundef %30)
  %31 = load i32, ptr %12, align 4
  %32 = icmp sle i32 %31, 2
  br i1 %32, label %33, label %36

33:                                               ; preds = %4
  %34 = load ptr, ptr %6, align 8
  %35 = call i32 @tvb_captured_length(ptr noundef %34)
  store i32 %35, ptr %5, align 4
  store i32 1, ptr %14, align 4
  br label %58

36:                                               ; preds = %4
  %37 = load i32, ptr %13, align 4
  %38 = add i32 %37, 2
  store i32 %38, ptr %13, align 4
  %39 = load i32, ptr %12, align 4
  %40 = sub i32 %39, 2
  store i32 %40, ptr %12, align 4
  br label %41

41:                                               ; preds = %50, %36
  %42 = load i32, ptr %12, align 4
  %43 = icmp sge i32 %42, 2
  br i1 %43, label %44, label %55

44:                                               ; preds = %41
  %45 = load ptr, ptr %10, align 8
  %46 = load i32, ptr @hf_ipcp_opt_rohc_profile, align 4
  %47 = load ptr, ptr %6, align 8
  %48 = load i32, ptr %13, align 4
  %49 = call ptr @proto_tree_add_item(ptr noundef %45, i32 noundef %46, ptr noundef %47, i32 noundef %48, i32 noundef 2, i32 noundef 0)
  br label %50

50:                                               ; preds = %44
  %51 = load i32, ptr %12, align 4
  %52 = sub i32 %51, 2
  store i32 %52, ptr %12, align 4
  %53 = load i32, ptr %13, align 4
  %54 = add i32 %53, 2
  store i32 %54, ptr %13, align 4
  br label %41, !llvm.loop !15

55:                                               ; preds = %41
  %56 = load ptr, ptr %6, align 8
  %57 = call i32 @tvb_captured_length(ptr noundef %56)
  store i32 %57, ptr %5, align 4
  store i32 1, ptr %14, align 4
  br label %58

58:                                               ; preds = %55, %33
  call void @llvm.lifetime.end.p0(i64 4, ptr %13) #6
  call void @llvm.lifetime.end.p0(i64 4, ptr %12) #6
  call void @llvm.lifetime.end.p0(i64 8, ptr %11) #6
  call void @llvm.lifetime.end.p0(i64 8, ptr %10) #6
  %59 = load i32, ptr %5, align 4
  ret i32 %59
}